Certificate:
    Data:
        Version: 3 (0x2)
        Serial Number: 1 (0x1)
        Signature Algorithm: sha256WithRSAEncryption
        Issuer: C=US, ST=Maryland, L=Baltimore, O=Test CA, Limited, OU=Server Research Department, CN=Test CA/emailAddress=test@example.com
        Validity
            Not Before: Sep  2 08:35:26 2022 GMT
            Not After : Sep  2 08:35:26 2023 GMT
        Subject: C=US, ST=MD, L=Baltimore, O=Test Server, Limited, CN=Test Server
        Subject Public Key Info:
            Public Key Algorithm: rsaEncryption
                RSA Public-Key: (2048 bit)
                Modulus:
                    00:ca:a9:f9:a6:ac:64:88:2d:c9:2e:2e:25:76:01:
                    90:a7:45:b5:7b:cf:4c:bd:9a:66:36:cc:d2:e1:6e:
                    8a:f6:9c:56:b5:1f:19:31:b1:6f:7d:b6:f3:d5:6a:
                    be:9e:55:4f:62:d1:9b:9f:6b:4d:95:a8:1a:99:c8:
                    8a:3d:90:c2:36:32:99:5f:1e:10:5e:f0:dd:89:23:
                    c7:8f:31:3f:7c:4c:77:c1:1f:6d:10:54:d4:e9:72:
                    1b:13:f2:0c:a4:cb:d0:d4:f6:8d:63:f3:dd:79:02:
                    3b:4a:1b:a1:20:38:3f:63:4a:5f:40:f7:f8:76:b0:
                    78:99:9c:a6:f4:7d:96:28:32:bc:be:d6:6f:b6:94:
                    dd:44:60:25:3b:15:e9:aa:0a:5c:45:5e:01:4a:0d:
                    ee:ae:13:68:84:4d:a0:e3:10:f2:62:28:9d:52:14:
                    bb:d8:2f:21:4a:dc:25:2d:33:c0:81:30:74:31:c0:
                    19:93:9d:ad:4c:06:e8:41:3f:75:a2:e1:1d:79:51:
                    85:93:d2:08:f3:ba:7a:cf:24:f0:df:c5:6e:61:8c:
                    a7:e3:9f:c1:00:81:b2:0a:6a:a7:92:93:9b:a4:54:
                    3f:5a:ca:40:76:35:d8:b1:0f:0d:9d:5a:a8:88:0c:
                    c6:99:40:23:25:01:25:20:d5:fa:51:b9:d8:bb:7a:
                    5a:09
                Exponent: 65537 (0x10001)
        X509v3 extensions:
            X509v3 Subject Key Identifier: 
                F0:C9:91:88:D4:5A:70:FF:AB:66:CC:8F:1B:CA:56:D6:7A:80:70:61
            X509v3 Authority Key Identifier: 
                keyid:1F:0D:F9:71:B7:6E:31:69:A9:58:BA:C5:A5:A3:E8:57:AE:10:CE:94

            X509v3 Basic Constraints: 
                CA:FALSE
            X509v3 Key Usage: 
                Digital Signature, Key Encipherment
            X509v3 Subject Alternative Name: 
                DNS:example.com, DNS:www.example.com, DNS:mail.example.com, DNS:ftp.example.com, IP Address:127.0.0.1, IP Address:192.168.1.117, IP Address:0:0:0:0:0:0:0:1
            Netscape Comment: 
                OpenSSL Generated Certificate
    Signature Algorithm: sha256WithRSAEncryption
         3b:26:d8:8e:e9:1a:6c:5b:af:b2:43:81:95:8f:82:29:f6:67:
         cd:8f:e9:49:f8:a7:f1:4d:10:7e:42:2e:73:bb:a4:e2:f9:51:
         6e:ee:8c:cb:64:b2:0b:3e:77:18:40:c7:bc:cc:95:8f:a5:2f:
         29:c6:d7:81:cc:1b:5b:c9:4f:2e:70:30:6e:0d:b4:1f:ad:0f:
         eb:d5:80:f4:5d:eb:da:4f:d2:da:6b:b9:34:1a:a5:36:ad:15:
         66:ad:ef:a9:0a:3b:9e:b4:29:34:1c:3b:69:e6:1e:1f:c3:14:
         80:d8:28:ef:c5:06:f5:00:45:5e:51:05:41:cc:79:a8:b0:ca:
         ee:0a:bc:06:ef:1d:05:3f:ba:f3:20:2e:11:32:8f:4e:74:df:
         c5:b6:25:56:dd:86:41:53:29:45:46:8b:5a:1b:12:9a:03:9f:
         67:5d:c9:66:3b:22:ad:59:0a:06:3f:59:5d:f8:ec:ec:4e:16:
         8e:b2:f4:f6:01:20:26:e5:79:73:29:2c:34:2c:48:c8:38:f1:
         04:83:10:3c:8b:da:e4:61:37:3d:63:38:5d:81:ba:9d:b5:c6:
         29:51:44:55:90:a1:4e:79:65:f8:65:da:66:9c:80:49:13:4e:
         e5:ba:09:e1:69:13:e6:77:6f:30:68:8a:d5:b1:d9:e3:4c:a6:
         16:e3:b9:03:27:20:cc:d3:0a:68:8e:eb:35:a4:aa:cd:90:97:
         5a:9c:04:65:cb:d8:a1:8e:ee:f6:7b:ad:49:b0:33:2d:9d:31:
         4d:77:b1:f1:6a:97:1d:cb:e2:b5:1d:56:44:22:2f:c9:ec:64:
         36:9e:be:43:a0:4b:f8:52:de:30:b2:da:e4:be:2a:40:4f:b8:
         93:a9:67:48:a4:e7:87:e8:ca:6d:b7:da:92:81:5f:1b:e3:d3:
         29:2e:fa:3e:6f:82:68:57:42:36:cf:b5:11:be:75:92:53:90:
         b5:b5:99:41:92:a3:81:9c:7f:5c:36:fc:fd:80:6b:80:fe:4a:
         30:bf:d8:1a:30:91:d8:ae:19:7d:d8:cb:4c:c9:0e:e5:34:e9:
         4c:5a:8e:9b:69:5d:00:08:c9:90:ce:b3:b9:95:00:ef:a4:6d:
         1e:eb:6f:e0:3f:c5:c1:bd:1a:a1:1f:38:8b:f3:95:cb:ab:61:
         6e:19:e0:d1:0e:26:76:23:b0:ea:92:ac:e9:eb:86:4a:c4:f3:
         11:08:74:5f:7e:e8:75:6d:65:73:ff:10:b9:68:01:5c:51:56:
         e7:35:c6:1d:35:f9:37:61:0e:c9:0a:54:de:ca:41:f4:f5:18:
         be:10:54:bc:8b:0d:c0:41:dc:b5:0c:53:cb:1f:ca:e5:88:93:
         61:9b:6b:76:56:a1:6c:d4
-----BEGIN CERTIFICATE-----
MIIFejCCA2KgAwIBAgIBATANBgkqhkiG9w0BAQsFADCBpzELMAkGA1UEBhMCVVMx
ETAPBgNVBAgMCE1hcnlsYW5kMRIwEAYDVQQHDAlCYWx0aW1vcmUxGTAXBgNVBAoM
EFRlc3QgQ0EsIExpbWl0ZWQxIzAhBgNVBAsMGlNlcnZlciBSZXNlYXJjaCBEZXBh
cnRtZW50MRAwDgYDVQQDDAdUZXN0IENBMR8wHQYJKoZIhvcNAQkBFhB0ZXN0QGV4
YW1wbGUuY29tMB4XDTIyMDkwMjA4MzUyNloXDTIzMDkwMjA4MzUyNlowYzELMAkG
A1UEBhMCVVMxCzAJBgNVBAgMAk1EMRIwEAYDVQQHDAlCYWx0aW1vcmUxHTAbBgNV
BAoMFFRlc3QgU2VydmVyLCBMaW1pdGVkMRQwEgYDVQQDDAtUZXN0IFNlcnZlcjCC
ASIwDQYJKoZIhvcNAQEBBQADggEPADCCAQoCggEBAMqp+aasZIgtyS4uJXYBkKdF
tXvPTL2aZjbM0uFuivacVrUfGTGxb32289Vqvp5VT2LRm59rTZWoGpnIij2QwjYy
mV8eEF7w3Ykjx48xP3xMd8EfbRBU1OlyGxPyDKTL0NT2jWPz3XkCO0oboSA4P2NK
X0D3+HaweJmcpvR9ligyvL7Wb7aU3URgJTsV6aoKXEVeAUoN7q4TaIRNoOMQ8mIo
nVIUu9gvIUrcJS0zwIEwdDHAGZOdrUwG6EE/daLhHXlRhZPSCPO6es8k8N/FbmGM
p+OfwQCBsgpqp5KTm6RUP1rKQHY12LEPDZ1aqIgMxplAIyUBJSDV+lG52Lt6WgkC
AwEAAaOB8zCB8DAdBgNVHQ4EFgQU8MmRiNRacP+rZsyPG8pW1nqAcGEwHwYDVR0j
BBgwFoAUHw35cbduMWmpWLrFpaPoV64QzpQwCQYDVR0TBAIwADALBgNVHQ8EBAMC
BaAwaAYDVR0RBGEwX4ILZXhhbXBsZS5jb22CD3d3dy5leGFtcGxlLmNvbYIQbWFp
bC5leGFtcGxlLmNvbYIPZnRwLmV4YW1wbGUuY29thwR/AAABhwTAqAF1hxAAAAAA
AAAAAAAAAAAAAAABMCwGCWCGSAGG+EIBDQQfFh1PcGVuU1NMIEdlbmVyYXRlZCBD
ZXJ0aWZpY2F0ZTANBgkqhkiG9w0BAQsFAAOCAgEAOybYjukabFuvskOBlY+CKfZn
zY/pSfin8U0QfkIuc7uk4vlRbu6My2SyCz53GEDHvMyVj6UvKcbXgcwbW8lPLnAw
bg20H60P69WA9F3r2k/S2mu5NBqlNq0VZq3vqQo7nrQpNBw7aeYeH8MUgNgo78UG
9QBFXlEFQcx5qLDK7gq8Bu8dBT+68yAuETKPTnTfxbYlVt2GQVMpRUaLWhsSmgOf
Z13JZjsirVkKBj9ZXfjs7E4WjrL09gEgJuV5cyksNCxIyDjxBIMQPIva5GE3PWM4
XYG6nbXGKVFEVZChTnll+GXaZpyASRNO5boJ4WkT5ndvMGiK1bHZ40ymFuO5Aycg
zNMKaI7rNaSqzZCXWpwEZcvYoY7u9nutSbAzLZ0xTXex8WqXHcvitR1WRCIvyexk
Np6+Q6BL+FLeMLLa5L4qQE+4k6lnSKTnh+jKbbfakoFfG+PTKS76Pm+CaFdCNs+1
Eb51klOQtbWZQZKjgZx/XDb8/YBrgP5KML/YGjCR2K4ZfdjLTMkO5TTpTFqOm2ld
AAjJkM6zuZUA76RtHutv4D/Fwb0aoR84i/OVy6thbhng0Q4mdiOw6pKs6euGSsTz
EQh0X37odW1lc/8QuWgBXFFW5zXGHTX5N2EOyQpU3spB9PUYvhBUvIsNwEHctQxT
yx/K5YiTYZtrdlahbNQ=
-----END CERTIFICATE-----
